target datalayout = "e-m:e-p270:32:32-p271:32:32-p272:64:64-i64:64-i128:128-f80:128-n8:16:32:64-S128"
target triple = "x86_64-pc-linux-gnu"

%struct._Node = type { %union.anon.2 }
%union.anon.2 = type { %struct.BagNode }
%struct.BagNode = type { i32, i32, ptr, ptr, i32, %union.anon.4, i32, i32, i32, i32, i32 }
%union.anon.4 = type { %struct.anon.7 }
%struct.anon.7 = type { ptr, ptr }
%struct.anon.3 = type { i32, i32, ptr, ptr }
%struct.StrNode = type { i32, i32, ptr, ptr, ptr, i32, [24 x i8], i32 }
%struct.ConsAltNode = type { i32, i32, ptr, ptr, ptr }
%struct.CClassNode = type { i32, i32, ptr, i32, [8 x i32], ptr }
%struct.BackRefNode = type { i32, i32, ptr, i32, [6 x i32], ptr, i32 }
%struct.AnchorNode = type { i32, i32, ptr, ptr, i32, i32, i32, i32, ptr }
%struct._BBuf = type { ptr, i32, i32 }

; Function Attrs: nounwind uwtable
define internal void @bbuf_free(ptr noundef %0) #0 {
  %2 = alloca ptr, align 8
  store ptr %0, ptr %2, align 8, !tbaa !123
  %3 = load ptr, ptr %2, align 8, !tbaa !123
  %4 = icmp ne ptr %3, null
  br i1 %4, label %5, label %16

5:                                                ; preds = %1
  %6 = load ptr, ptr %2, align 8, !tbaa !123
  %7 = getelementptr inbounds nuw %struct._BBuf, ptr %6, i32 0, i32 0
  %8 = load ptr, ptr %7, align 8, !tbaa !127
  %9 = icmp ne ptr %8, null
  br i1 %9, label %10, label %14

10:                                               ; preds = %5
  %11 = load ptr, ptr %2, align 8, !tbaa !123
  %12 = getelementptr inbounds nuw %struct._BBuf, ptr %11, i32 0, i32 0
  %13 = load ptr, ptr %12, align 8, !tbaa !127
  call void @free(ptr noundef %13) #8
  br label %14

14:                                               ; preds = %10, %5
  %15 = load ptr, ptr %2, align 8, !tbaa !123
  call void @free(ptr noundef %15) #8
  br label %16

16:                                               ; preds = %14, %1
  ret void
}

; Function Attrs: nounwind uwtable
define dso_local void @onig_node_free(ptr noundef %0) #0 {
  %2 = alloca ptr, align 8
  store ptr %0, ptr %2, align 8, !tbaa !111
  %3 = load ptr, ptr %2, align 8, !tbaa !111
  %4 = icmp eq ptr %3, null
  br i1 %4, label %5, label %6

5:                                                ; preds = %1
  br label %9

6:                                                ; preds = %1
  %7 = load ptr, ptr %2, align 8, !tbaa !111
  call void @node_free_body(ptr noundef %7)
  %8 = load ptr, ptr %2, align 8, !tbaa !111
  call void @free(ptr noundef %8) #8
  br label %9

9:                                                ; preds = %6, %5
  ret void
}

; Function Attrs: nounwind uwtable
define internal void @node_free_body(ptr noundef %0) #0 {
  %2 = alloca ptr, align 8
  %3 = alloca ptr, align 8
  %4 = alloca ptr, align 8
  %5 = alloca ptr, align 8
  store ptr %0, ptr %2, align 8, !tbaa !111
  %6 = load ptr, ptr %2, align 8, !tbaa !111
  %7 = icmp eq ptr %6, null
  br i1 %7, label %8, label %9

8:                                                ; preds = %1
  br label %154

9:                                                ; preds = %1
  %10 = load ptr, ptr %2, align 8, !tbaa !111
  %11 = getelementptr inbounds nuw %struct._Node, ptr %10, i32 0, i32 0
  %12 = getelementptr inbounds nuw %struct.anon.3, ptr %11, i32 0, i32 0
  %13 = load i32, ptr %12, align 8, !tbaa !12
  switch i32 %13, label %154 [
    i32 0, label %14
    i32 7, label %42
    i32 8, label %42
    i32 1, label %66
    i32 3, label %78
    i32 5, label %90
    i32 4, label %118
    i32 6, label %130
    i32 2, label %153
    i32 9, label %153
    i32 10, label %153
  ]

14:                                               ; preds = %9
  %15 = load ptr, ptr %2, align 8, !tbaa !111
  %16 = getelementptr inbounds nuw %struct._Node, ptr %15, i32 0, i32 0
  %17 = getelementptr inbounds nuw %struct.StrNode, ptr %16, i32 0, i32 7
  %18 = load i32, ptr %17, align 4, !tbaa !12
  %19 = icmp ne i32 %18, 0
  br i1 %19, label %20, label %41

20:                                               ; preds = %14
  %21 = load ptr, ptr %2, align 8, !tbaa !111
  %22 = getelementptr inbounds nuw %struct._Node, ptr %21, i32 0, i32 0
  %23 = getelementptr inbounds nuw %struct.StrNode, ptr %22, i32 0, i32 3
  %24 = load ptr, ptr %23, align 8, !tbaa !12
  %25 = icmp ne ptr %24, null
  br i1 %25, label %26, label %41

26:                                               ; preds = %20
  %27 = load ptr, ptr %2, align 8, !tbaa !111
  %28 = getelementptr inbounds nuw %struct._Node, ptr %27, i32 0, i32 0
  %29 = getelementptr inbounds nuw %struct.StrNode, ptr %28, i32 0, i32 3
  %30 = load ptr, ptr %29, align 8, !tbaa !12
  %31 = load ptr, ptr %2, align 8, !tbaa !111
  %32 = getelementptr inbounds nuw %struct._Node, ptr %31, i32 0, i32 0
  %33 = getelementptr inbounds nuw %struct.StrNode, ptr %32, i32 0, i32 6
  %34 = getelementptr inbounds [24 x i8], ptr %33, i64 0, i64 0
  %35 = icmp ne ptr %30, %34
  br i1 %35, label %36, label %41

36:                                               ; preds = %26
  %37 = load ptr, ptr %2, align 8, !tbaa !111
  %38 = getelementptr inbounds nuw %struct._Node, ptr %37, i32 0, i32 0
  %39 = getelementptr inbounds nuw %struct.StrNode, ptr %38, i32 0, i32 3
  %40 = load ptr, ptr %39, align 8, !tbaa !12
  call void @free(ptr noundef %40) #8
  br label %41

41:                                               ; preds = %36, %26, %20, %14
  br label %154

42:                                               ; preds = %9, %9
  %43 = load ptr, ptr %2, align 8, !tbaa !111
  %44 = getelementptr inbounds nuw %struct._Node, ptr %43, i32 0, i32 0
  %45 = getelementptr inbounds nuw %struct.ConsAltNode, ptr %44, i32 0, i32 3
  %46 = load ptr, ptr %45, align 8, !tbaa !12
  call void @onig_node_free(ptr noundef %46)
  %47 = load ptr, ptr %2, align 8, !tbaa !111
  %48 = getelementptr inbounds nuw %struct._Node, ptr %47, i32 0, i32 0
  %49 = getelementptr inbounds nuw %struct.ConsAltNode, ptr %48, i32 0, i32 4
  %50 = load ptr, ptr %49, align 8, !tbaa !12
  store ptr %50, ptr %2, align 8, !tbaa !111
  br label %51

51:                                               ; preds = %54, %42
  %52 = load ptr, ptr %2, align 8, !tbaa !111
  %53 = icmp ne ptr %52, null
  br i1 %53, label %54, label %65

54:                                               ; preds = %51
  call void @llvm.lifetime.start.p0(i64 8, ptr %3) #8
  %55 = load ptr, ptr %2, align 8, !tbaa !111
  %56 = getelementptr inbounds nuw %struct._Node, ptr %55, i32 0, i32 0
  %57 = getelementptr inbounds nuw %struct.ConsAltNode, ptr %56, i32 0, i32 4
  %58 = load ptr, ptr %57, align 8, !tbaa !12
  store ptr %58, ptr %3, align 8, !tbaa !111
  %59 = load ptr, ptr %2, align 8, !tbaa !111
  %60 = getelementptr inbounds nuw %struct._Node, ptr %59, i32 0, i32 0
  %61 = getelementptr inbounds nuw %struct.ConsAltNode, ptr %60, i32 0, i32 3
  %62 = load ptr, ptr %61, align 8, !tbaa !12
  call void @onig_node_free(ptr noundef %62)
  %63 = load ptr, ptr %2, align 8, !tbaa !111
  call void @free(ptr noundef %63) #8
  %64 = load ptr, ptr %3, align 8, !tbaa !111
  store ptr %64, ptr %2, align 8, !tbaa !111
  call void @llvm.lifetime.end.p0(i64 8, ptr %3) #8
  br label %51, !llvm.loop !113

65:                                               ; preds = %51
  br label %154

66:                                               ; preds = %9
  call void @llvm.lifetime.start.p0(i64 8, ptr %4) #8
  %67 = load ptr, ptr %2, align 8, !tbaa !111
  %68 = getelementptr inbounds nuw %struct._Node, ptr %67, i32 0, i32 0
  store ptr %68, ptr %4, align 8, !tbaa !9
  %69 = load ptr, ptr %4, align 8, !tbaa !9
  %70 = getelementptr inbounds nuw %struct.CClassNode, ptr %69, i32 0, i32 5
  %71 = load ptr, ptr %70, align 8, !tbaa !114
  %72 = icmp ne ptr %71, null
  br i1 %72, label %73, label %77

73:                                               ; preds = %66
  %74 = load ptr, ptr %4, align 8, !tbaa !9
  %75 = getelementptr inbounds nuw %struct.CClassNode, ptr %74, i32 0, i32 5
  %76 = load ptr, ptr %75, align 8, !tbaa !114
  call void @bbuf_free(ptr noundef %76)
  br label %77

77:                                               ; preds = %73, %66
  call void @llvm.lifetime.end.p0(i64 8, ptr %4) #8
  br label %154

78:                                               ; preds = %9
  %79 = load ptr, ptr %2, align 8, !tbaa !111
  %80 = getelementptr inbounds nuw %struct._Node, ptr %79, i32 0, i32 0
  %81 = getelementptr inbounds nuw %struct.BackRefNode, ptr %80, i32 0, i32 5
  %82 = load ptr, ptr %81, align 8, !tbaa !12
  %83 = icmp ne ptr %82, null
  br i1 %83, label %84, label %89

84:                                               ; preds = %78
  %85 = load ptr, ptr %2, align 8, !tbaa !111
  %86 = getelementptr inbounds nuw %struct._Node, ptr %85, i32 0, i32 0
  %87 = getelementptr inbounds nuw %struct.BackRefNode, ptr %86, i32 0, i32 5
  %88 = load ptr, ptr %87, align 8, !tbaa !12
  call void @free(ptr noundef %88) #8
  br label %89

89:                                               ; preds = %84, %78
  br label %154

90:                                               ; preds = %9
  %91 = load ptr, ptr %2, align 8, !tbaa !111
  %92 = getelementptr inbounds nuw %struct._Node, ptr %91, i32 0, i32 0
  %93 = getelementptr inbounds nuw %struct.anon.3, ptr %92, i32 0, i32 3
  %94 = load ptr, ptr %93, align 8, !tbaa !12
  %95 = icmp ne ptr %94, null
  br i1 %95, label %96, label %101

96:                                               ; preds = %90
  %97 = load ptr, ptr %2, align 8, !tbaa !111
  %98 = getelementptr inbounds nuw %struct._Node, ptr %97, i32 0, i32 0
  %99 = getelementptr inbounds nuw %struct.anon.3, ptr %98, i32 0, i32 3
  %100 = load ptr, ptr %99, align 8, !tbaa !12
  call void @onig_node_free(ptr noundef %100)
  br label %101

101:                                              ; preds = %96, %90
  call void @llvm.lifetime.start.p0(i64 8, ptr %5) #8
  %102 = load ptr, ptr %2, align 8, !tbaa !111
  %103 = getelementptr inbounds nuw %struct._Node, ptr %102, i32 0, i32 0
  store ptr %103, ptr %5, align 8, !tbaa !9
  %104 = load ptr, ptr %5, align 8, !tbaa !9
  %105 = getelementptr inbounds nuw %struct.BagNode, ptr %104, i32 0, i32 4
  %106 = load i32, ptr %105, align 8, !tbaa !117
  %107 = icmp eq i32 %106, 3
  br i1 %107, label %108, label %117

108:                                              ; preds = %101
  %109 = load ptr, ptr %5, align 8, !tbaa !9
  %110 = getelementptr inbounds nuw %struct.BagNode, ptr %109, i32 0, i32 5
  %111 = getelementptr inbounds nuw %struct.anon.7, ptr %110, i32 0, i32 0
  %112 = load ptr, ptr %111, align 8, !tbaa !12
  call void @onig_node_free(ptr noundef %112)
  %113 = load ptr, ptr %5, align 8, !tbaa !9
  %114 = getelementptr inbounds nuw %struct.BagNode, ptr %113, i32 0, i32 5
  %115 = getelementptr inbounds nuw %struct.anon.7, ptr %114, i32 0, i32 1
  %116 = load ptr, ptr %115, align 8, !tbaa !12
  call void @onig_node_free(ptr noundef %116)
  br label %117

117:                                              ; preds = %108, %101
  call void @llvm.lifetime.end.p0(i64 8, ptr %5) #8
  br label %154

118:                                              ; preds = %9
  %119 = load ptr, ptr %2, align 8, !tbaa !111
  %120 = getelementptr inbounds nuw %struct._Node, ptr %119, i32 0, i32 0
  %121 = getelementptr inbounds nuw %struct.anon.3, ptr %120, i32 0, i32 3
  %122 = load ptr, ptr %121, align 8, !tbaa !12
  %123 = icmp ne ptr %122, null
  br i1 %123, label %124, label %129

124:                                              ; preds = %118
  %125 = load ptr, ptr %2, align 8, !tbaa !111
  %126 = getelementptr inbounds nuw %struct._Node, ptr %125, i32 0, i32 0
  %127 = getelementptr inbounds nuw %struct.anon.3, ptr %126, i32 0, i32 3
  %128 = load ptr, ptr %127, align 8, !tbaa !12
  call void @onig_node_free(ptr noundef %128)
  br label %129

129:                                              ; preds = %124, %118
  br label %154

130:                                              ; preds = %9
  %131 = load ptr, ptr %2, align 8, !tbaa !111
  %132 = getelementptr inbounds nuw %struct._Node, ptr %131, i32 0, i32 0
  %133 = getelementptr inbounds nuw %struct.anon.3, ptr %132, i32 0, i32 3
  %134 = load ptr, ptr %133, align 8, !tbaa !12
  %135 = icmp ne ptr %134, null
  br i1 %135, label %136, label %141

136:                                              ; preds = %130
  %137 = load ptr, ptr %2, align 8, !tbaa !111
  %138 = getelementptr inbounds nuw %struct._Node, ptr %137, i32 0, i32 0
  %139 = getelementptr inbounds nuw %struct.anon.3, ptr %138, i32 0, i32 3
  %140 = load ptr, ptr %139, align 8, !tbaa !12
  call void @onig_node_free(ptr noundef %140)
  br label %141

141:                                              ; preds = %136, %130
  %142 = load ptr, ptr %2, align 8, !tbaa !111
  %143 = getelementptr inbounds nuw %struct._Node, ptr %142, i32 0, i32 0
  %144 = getelementptr inbounds nuw %struct.AnchorNode, ptr %143, i32 0, i32 8
  %145 = load ptr, ptr %144, align 8, !tbaa !12
  %146 = icmp ne ptr %145, null
  br i1 %146, label %147, label %152

147:                                              ; preds = %141
  %148 = load ptr, ptr %2, align 8, !tbaa !111
  %149 = getelementptr inbounds nuw %struct._Node, ptr %148, i32 0, i32 0
  %150 = getelementptr inbounds nuw %struct.AnchorNode, ptr %149, i32 0, i32 8
  %151 = load ptr, ptr %150, align 8, !tbaa !12
  call void @onig_node_free(ptr noundef %151)
  br label %152

152:                                              ; preds = %147, %141
  br label %154

153:                                              ; preds = %9, %9, %9
  br label %154

154:                                              ; preds = %8, %9, %153, %152, %129, %117, %89, %77, %65, %41
  ret void
}