; Function Attrs: nounwind uwtable
define internal fastcc void @node_free_body(ptr noundef readonly captures(address) %0) unnamed_addr #2 {
  %2 = icmp eq ptr %0, null
  br i1 %2, label %common.ret, label %3

3:                                                ; preds = %1
  %4 = load i32, ptr %0, align 8, !tbaa !10
  switch i32 %4, label %common.ret [
    i32 0, label %5
    i32 7, label %12
    i32 8, label %12
    i32 1, label %25
    i32 3, label %31
    i32 5, label %34
    i32 4, label %50
    i32 6, label %53
  ]

5:                                                ; preds = %3
  %6 = getelementptr inbounds nuw i8, ptr %0, i64 60
  %7 = load i32, ptr %6, align 4, !tbaa !10
  %.not45 = icmp eq i32 %7, 0
  br i1 %.not45, label %common.ret, label %8

8:                                                ; preds = %5
  %9 = getelementptr inbounds nuw i8, ptr %0, i64 16
  %10 = load ptr, ptr %9, align 8, !tbaa !10
  %.not46 = icmp eq ptr %10, null
  %11 = getelementptr inbounds nuw i8, ptr %0, i64 36
  %.not47 = icmp eq ptr %10, %11
  %or.cond = select i1 %.not46, i1 true, i1 %.not47
  br i1 %or.cond, label %common.ret, label %common.ret.sink.split

12:                                               ; preds = %3, %3
  %13 = getelementptr inbounds nuw i8, ptr %0, i64 16
  %14 = load ptr, ptr %13, align 8, !tbaa !10
  %15 = icmp eq ptr %14, null
  br i1 %15, label %onig_node_free.exit, label %16

16:                                               ; preds = %12
  tail call fastcc void @node_free_body(ptr noundef nonnull %14)
  tail call void @free(ptr noundef nonnull %14) #24
  br label %onig_node_free.exit

onig_node_free.exit:                              ; preds = %12, %16
  %17 = getelementptr inbounds nuw i8, ptr %0, i64 24
  %18 = load ptr, ptr %17, align 8, !tbaa !10
  %.not4455 = icmp eq ptr %18, null
  br i1 %.not4455, label %common.ret, label %.lr.ph

.lr.ph:                                           ; preds = %onig_node_free.exit, %onig_node_free.exit48
  %.056 = phi ptr [ %20, %onig_node_free.exit48 ], [ %18, %onig_node_free.exit ]
  %19 = getelementptr inbounds nuw i8, ptr %.056, i64 24
  %20 = load ptr, ptr %19, align 8, !tbaa !10
  %21 = getelementptr inbounds nuw i8, ptr %.056, i64 16
  %22 = load ptr, ptr %21, align 8, !tbaa !10
  %23 = icmp eq ptr %22, null
  br i1 %23, label %onig_node_free.exit48, label %24

24:                                               ; preds = %.lr.ph
  tail call fastcc void @node_free_body(ptr noundef nonnull %22)
  tail call void @free(ptr noundef nonnull %22) #24
  br label %onig_node_free.exit48

onig_node_free.exit48:                            ; preds = %.lr.ph, %24
  tail call void @free(ptr noundef nonnull %.056) #24
  %.not44 = icmp eq ptr %20, null
  br i1 %.not44, label %common.ret, label %.lr.ph, !llvm.loop !103

25:                                               ; preds = %3
  %26 = getelementptr inbounds nuw i8, ptr %0, i64 56
  %27 = load ptr, ptr %26, align 8, !tbaa !104
  %.not43 = icmp eq ptr %27, null
  br i1 %.not43, label %common.ret, label %28

28:                                               ; preds = %25
  %29 = load ptr, ptr %27, align 8, !tbaa !108
  %.not5.i = icmp eq ptr %29, null
  br i1 %.not5.i, label %common.ret.sink.split, label %30

30:                                               ; preds = %28
  tail call void @free(ptr noundef nonnull %29) #24
  br label %common.ret.sink.split

31:                                               ; preds = %3
  %32 = getelementptr inbounds nuw i8, ptr %0, i64 48
  %33 = load ptr, ptr %32, align 8, !tbaa !10
  %.not42 = icmp eq ptr %33, null
  br i1 %.not42, label %common.ret, label %common.ret.sink.split

34:                                               ; preds = %3
  %35 = getelementptr inbounds nuw i8, ptr %0, i64 16
  %36 = load ptr, ptr %35, align 8, !tbaa !10
  %.not41 = icmp eq ptr %36, null
  br i1 %.not41, label %37, label %onig_node_free.exit49

onig_node_free.exit49:                            ; preds = %34
  tail call fastcc void @node_free_body(ptr noundef nonnull %36)
  tail call void @free(ptr noundef nonnull %36) #24
  br label %37

37:                                               ; preds = %onig_node_free.exit49, %34
  %38 = getelementptr inbounds nuw i8, ptr %0, i64 24
  %39 = load i32, ptr %38, align 8, !tbaa !110
  %40 = icmp eq i32 %39, 3
  br i1 %40, label %41, label %common.ret

41:                                               ; preds = %37
  %42 = getelementptr inbounds nuw i8, ptr %0, i64 32
  %43 = load ptr, ptr %42, align 8, !tbaa !10
  %44 = icmp eq ptr %43, null
  br i1 %44, label %onig_node_free.exit50, label %45

45:                                               ; preds = %41
  tail call fastcc void @node_free_body(ptr noundef nonnull %43)
  tail call void @free(ptr noundef nonnull %43) #24
  br label %onig_node_free.exit50

onig_node_free.exit50:                            ; preds = %41, %45
  %46 = getelementptr inbounds nuw i8, ptr %0, i64 40
  %47 = load ptr, ptr %46, align 8, !tbaa !10
  %48 = icmp eq ptr %47, null
  br i1 %48, label %common.ret, label %49

common.ret.sink.split:                            ; preds = %31, %30, %28, %8, %49, %onig_node_free.exit52, %onig_node_free.exit54
  %.sink = phi ptr [ %58, %onig_node_free.exit54 ], [ %52, %onig_node_free.exit52 ], [ %47, %49 ], [ %10, %8 ], [ %27, %28 ], [ %27, %30 ], [ %33, %31 ]
  tail call void @free(ptr noundef nonnull %.sink) #24
  br label %common.ret

common.ret:                                       ; preds = %onig_node_free.exit48, %common.ret.sink.split, %onig_node_free.exit, %3, %1, %8, %5, %31, %50, %56, %25, %37, %onig_node_free.exit50
  ret void

49:                                               ; preds = %onig_node_free.exit50
  tail call fastcc void @node_free_body(ptr noundef nonnull %47)
  br label %common.ret.sink.split

50:                                               ; preds = %3
  %51 = getelementptr inbounds nuw i8, ptr %0, i64 16
  %52 = load ptr, ptr %51, align 8, !tbaa !10
  %.not40 = icmp eq ptr %52, null
  br i1 %.not40, label %common.ret, label %onig_node_free.exit52

onig_node_free.exit52:                            ; preds = %50
  tail call fastcc void @node_free_body(ptr noundef nonnull %52)
  br label %common.ret.sink.split

53:                                               ; preds = %3
  %54 = getelementptr inbounds nuw i8, ptr %0, i64 16
  %55 = load ptr, ptr %54, align 8, !tbaa !10
  %.not = icmp eq ptr %55, null
  br i1 %.not, label %56, label %onig_node_free.exit53

onig_node_free.exit53:                            ; preds = %53
  tail call fastcc void @node_free_body(ptr noundef nonnull %55)
  tail call void @free(ptr noundef nonnull %55) #24
  br label %56

56:                                               ; preds = %onig_node_free.exit53, %53
  %57 = getelementptr inbounds nuw i8, ptr %0, i64 40
  %58 = load ptr, ptr %57, align 8, !tbaa !10
  %.not39 = icmp eq ptr %58, null
  br i1 %.not39, label %common.ret, label %onig_node_free.exit54

onig_node_free.exit54:                            ; preds = %56
  tail call fastcc void @node_free_body(ptr noundef nonnull %58)
  br label %common.ret.sink.split
}